; Function Attrs: mustprogress uwtable
define noundef ptr @_ZNK18llama_adapter_cvec8apply_toEP12ggml_contextP11ggml_tensori(ptr noundef nonnull readonly align 8 captures(none) dereferenceable(80) %0, ptr noundef %1, ptr noundef %2, i32 noundef %3) local_unnamed_addr #1 align 2 {
  %5 = icmp slt i32 %3, 0
  %6 = load i32, ptr %0, align 8
  %7 = icmp slt i32 %3, %6
  %or.cond.i = select i1 %5, i1 true, i1 %7
  %8 = getelementptr inbounds nuw i8, ptr %0, i64 4
  %9 = load i32, ptr %8, align 4
  %10 = icmp sgt i32 %3, %9
  %or.cond11.i = select i1 %or.cond.i, i1 true, i1 %10
  br i1 %or.cond11.i, label %_ZNK18llama_adapter_cvec10tensor_forEi.exit.thread, label %11

11:                                               ; preds = %4
  %12 = zext nneg i32 %3 to i64
  %13 = getelementptr inbounds nuw i8, ptr %0, i64 56
  %14 = getelementptr inbounds nuw i8, ptr %0, i64 64
  %15 = load ptr, ptr %14, align 8, !tbaa !3
  %16 = load ptr, ptr %13, align 8, !tbaa !10
  %17 = ptrtoint ptr %15 to i64
  %18 = ptrtoint ptr %16 to i64
  %19 = sub i64 %17, %18
  %20 = ashr exact i64 %19, 3
  %.not.i = icmp ugt i64 %20, %12
  br i1 %.not.i, label %_ZNK18llama_adapter_cvec10tensor_forEi.exit, label %_ZNK18llama_adapter_cvec10tensor_forEi.exit.thread

_ZNK18llama_adapter_cvec10tensor_forEi.exit:      ; preds = %11
  %21 = getelementptr inbounds nuw ptr, ptr %16, i64 %12
  %22 = load ptr, ptr %21, align 8, !tbaa !11
  %.not = icmp eq ptr %22, null
  br i1 %.not, label %_ZNK18llama_adapter_cvec10tensor_forEi.exit.thread, label %23

23:                                               ; preds = %_ZNK18llama_adapter_cvec10tensor_forEi.exit
  %24 = tail call ptr @ggml_add(ptr noundef %1, ptr noundef %2, ptr noundef nonnull %22)
  br label %_ZNK18llama_adapter_cvec10tensor_forEi.exit.thread

_ZNK18llama_adapter_cvec10tensor_forEi.exit.thread: ; preds = %4, %11, %23, %_ZNK18llama_adapter_cvec10tensor_forEi.exit
  %.0 = phi ptr [ %24, %23 ], [ %2, %_ZNK18llama_adapter_cvec10tensor_forEi.exit ], [ %2, %11 ], [ %2, %4 ]
  ret ptr %.0
}